target datalayout = "e-m:e-p270:32:32-p271:32:32-p272:64:64-i64:64-i128:128-f80:128-n8:16:32:64-S128"
target triple = "x86_64-pc-linux-gnu"

%class.JfrVirtualMemorySegment = type { ptr, ptr, %class.ReservedSpace, %class.VirtualSpace }
%class.ReservedSpace = type <{ ptr, i64, i64, i64, i64, i8, [3 x i8], i32, i8, [7 x i8] }>
%class.VirtualSpace = type { ptr, ptr, ptr, ptr, i8, i8, ptr, ptr, ptr, ptr, ptr, ptr, i64, i64, i64 }
%class.JfrVirtualMemoryManager = type { ptr, ptr, i64, i64, i64, i64 }

@_ZN23JfrVirtualMemorySegmentD1Ev = hidden unnamed_addr alias void (ptr), ptr @_ZN23JfrVirtualMemorySegmentD2Ev

; Function Attrs: mustprogress nounwind uwtable
define linkonce_odr hidden noundef ptr @_ZNK23JfrVirtualMemorySegment4nextEv(ptr noundef nonnull align 8 dereferenceable(184) %0) #1 comdat align 2 {
  %2 = alloca ptr, align 8
  store ptr %0, ptr %2, align 8
  %3 = load ptr, ptr %2, align 8
  %4 = getelementptr inbounds %class.JfrVirtualMemorySegment, ptr %3, i32 0, i32 0
  %5 = load ptr, ptr %4, align 8
  ret ptr %5
}

; Function Attrs: mustprogress nounwind uwtable
define hidden void @_ZN23JfrVirtualMemoryManagerD2Ev(ptr noundef nonnull align 8 dereferenceable(48) %0) unnamed_addr #1 align 2 {
  %2 = alloca ptr, align 8
  %3 = alloca ptr, align 8
  %4 = alloca ptr, align 8
  store ptr %0, ptr %2, align 8
  %5 = load ptr, ptr %2, align 8
  %6 = getelementptr inbounds %class.JfrVirtualMemoryManager, ptr %5, i32 0, i32 0
  %7 = load ptr, ptr %6, align 8
  store ptr %7, ptr %3, align 8
  br label %8

8:                                                ; preds = %17, %1
  %9 = load ptr, ptr %3, align 8
  %10 = icmp ne ptr %9, null
  br i1 %10, label %11, label %19

11:                                               ; preds = %8
  %12 = load ptr, ptr %3, align 8
  %13 = call noundef ptr @_ZNK23JfrVirtualMemorySegment4nextEv(ptr noundef nonnull align 8 dereferenceable(184) %12)
  store ptr %13, ptr %4, align 8
  %14 = load ptr, ptr %3, align 8
  %15 = icmp eq ptr %14, null
  br i1 %15, label %17, label %16

16:                                               ; preds = %11
  call void @_ZN23JfrVirtualMemorySegmentD1Ev(ptr noundef nonnull align 8 dereferenceable(184) %14) #5
  call void @_ZN11JfrCHeapObjdlEPvm(ptr noundef %14, i64 noundef 184) #5
  br label %17

17:                                               ; preds = %16, %11
  %18 = load ptr, ptr %4, align 8
  store ptr %18, ptr %3, align 8
  br label %8, !llvm.loop !6

19:                                               ; preds = %8
  ret void
}