; Function Attrs: mustprogress nounwind uwtable
define hidden void @_ZN23JfrVirtualMemoryManagerD2Ev(ptr nocapture noundef nonnull readonly align 8 dereferenceable(48) %0) unnamed_addr #0 align 2 {
  %2 = load ptr, ptr %0, align 8
  %.not5 = icmp eq ptr %2, null
  br i1 %.not5, label %._crit_edge, label %.lr.ph

.lr.ph:                                           ; preds = %1, %_ZN23JfrVirtualMemorySegmentD2Ev.exit
  %.06 = phi ptr [ %3, %_ZN23JfrVirtualMemorySegmentD2Ev.exit ], [ %2, %1 ]
  %3 = load ptr, ptr %.06, align 8
  %4 = getelementptr inbounds i8, ptr %.06, i64 72
  %5 = tail call noundef i64 @_ZNK12VirtualSpace21actual_committed_sizeEv(ptr noundef nonnull align 8 dereferenceable(112) %4) #11
  %.not.i.i = icmp eq i64 %5, 0
  br i1 %.not.i.i, label %_ZN23JfrVirtualMemorySegmentD2Ev.exit, label %6

6:                                                ; preds = %.lr.ph
  tail call void @_ZN12VirtualSpace9shrink_byEm(ptr noundef nonnull align 8 dereferenceable(112) %4, i64 noundef %5) #11
  br label %_ZN23JfrVirtualMemorySegmentD2Ev.exit

_ZN23JfrVirtualMemorySegmentD2Ev.exit:            ; preds = %.lr.ph, %6
  %7 = getelementptr inbounds i8, ptr %.06, i64 16
  tail call void @_ZN13ReservedSpace7releaseEv(ptr noundef nonnull align 8 dereferenceable(49) %7) #11
  tail call void @_ZN12VirtualSpaceD1Ev(ptr noundef nonnull align 8 dereferenceable(112) %4) #11
  tail call void @_ZN11JfrCHeapObjdlEPvm(ptr noundef nonnull %.06, i64 noundef 184) #11
  %.not = icmp eq ptr %3, null
  br i1 %.not, label %._crit_edge, label %.lr.ph, !llvm.loop !6

._crit_edge:                                      ; preds = %_ZN23JfrVirtualMemorySegmentD2Ev.exit, %1
  ret void
}